; Function Attrs: nounwind uwtable
define internal void @ff_tx_dctI_int32_c(ptr noundef readonly captures(none) %0, ptr noundef %1, ptr noundef readonly captures(none) %2, i64 noundef %3) #3 {
  %5 = load i32, ptr %0, align 8, !tbaa !16
  %6 = add i32 %5, -1
  %7 = getelementptr inbounds nuw i8, ptr %0, i64 24
  %8 = load ptr, ptr %7, align 8, !tbaa !54
  %9 = lshr i64 %3, 2
  %10 = icmp sgt i32 %5, 1
  br i1 %10, label %.lr.ph, label %._crit_edge

.lr.ph:                                           ; preds = %4
  %11 = shl nuw nsw i32 %6, 1
  %12 = zext nneg i32 %11 to i64
  %wide.trip.count = zext nneg i32 %6 to i64
  br label %22

._crit_edge:                                      ; preds = %22, %4
  %13 = sext i32 %6 to i64
  %14 = mul nsw i64 %9, %13
  %15 = getelementptr inbounds i32, ptr %2, i64 %14
  %16 = load i32, ptr %15, align 4, !tbaa !10
  %17 = getelementptr inbounds i32, ptr %8, i64 %13
  store i32 %16, ptr %17, align 4, !tbaa !10
  %18 = getelementptr inbounds nuw i8, ptr %0, i64 40
  %19 = load ptr, ptr %18, align 8, !tbaa !4
  %20 = getelementptr inbounds nuw i8, ptr %0, i64 32
  %21 = load ptr, ptr %20, align 8, !tbaa !55
  tail call void %19(ptr noundef %21, ptr noundef %1, ptr noundef %8, i64 noundef 4) #16
  ret void

22:                                               ; preds = %.lr.ph, %22
  %indvars.iv = phi i64 [ 0, %.lr.ph ], [ %indvars.iv.next, %22 ]
  %23 = mul nuw nsw i64 %9, %indvars.iv
  %24 = getelementptr inbounds nuw i32, ptr %2, i64 %23
  %25 = load i32, ptr %24, align 4, !tbaa !10
  %26 = sub nsw i64 %12, %indvars.iv
  %27 = getelementptr inbounds i32, ptr %8, i64 %26
  store i32 %25, ptr %27, align 4, !tbaa !10
  %28 = getelementptr inbounds nuw i32, ptr %8, i64 %indvars.iv
  store i32 %25, ptr %28, align 4, !tbaa !10
  %indvars.iv.next = add nuw nsw i64 %indvars.iv, 1
  %exitcond.not = icmp eq i64 %indvars.iv.next, %wide.trip.count
  br i1 %exitcond.not, label %._crit_edge, label %22, !llvm.loop !156
}